target datalayout = "e-m:e-p270:32:32-p271:32:32-p272:64:64-i64:64-i128:128-f80:128-n8:16:32:64-S128"
target triple = "x86_64-pc-linux-gnu"

@.str.107 = private unnamed_addr constant [37 x i8] c"string_list_add: Invalid arguments.\0A\00", align 1
@.str.108 = private unnamed_addr constant [78 x i8] c"string_list_add: Failed to allocate memory for optional database list entry.\0A\00", align 1
@.str.109 = private unnamed_addr constant [77 x i8] c"string_list_add: Failed to allocate memory for optional database list item.\0A\00", align 1

; Function Attrs: nounwind uwtable
define internal i32 @string_list_add(ptr noundef %0, ptr noundef %1, ptr noundef %2) #0 {
  %4 = alloca ptr, align 8
  %5 = alloca ptr, align 8
  %6 = alloca ptr, align 8
  %7 = alloca i32, align 4
  %8 = alloca ptr, align 8
  %9 = alloca i32, align 4
  store ptr %0, ptr %4, align 8
  store ptr %1, ptr %5, align 8
  store ptr %2, ptr %6, align 8
  store i32 16, ptr %7, align 4
  store ptr null, ptr %8, align 8
  store i32 0, ptr %9, align 4
  %10 = load ptr, ptr %4, align 8
  %11 = icmp eq ptr null, %10
  br i1 %11, label %18, label %12

12:                                               ; preds = %3
  %13 = load ptr, ptr %5, align 8
  %14 = icmp eq ptr null, %13
  br i1 %14, label %18, label %15

15:                                               ; preds = %12
  %16 = load ptr, ptr %6, align 8
  %17 = icmp eq ptr null, %16
  br i1 %17, label %18, label %19

18:                                               ; preds = %15, %12, %3
  call void (i32, ptr, ...) @mprintf(i32 noundef 5, ptr noundef @.str.107)
  br label %53

19:                                               ; preds = %15
  %20 = load ptr, ptr %6, align 8
  %21 = load i32, ptr %20, align 4
  %22 = add i32 %21, 1
  store i32 %22, ptr %9, align 4
  %23 = load ptr, ptr %5, align 8
  %24 = load ptr, ptr %23, align 8
  %25 = load i32, ptr %9, align 4
  %26 = zext i32 %25 to i64
  %27 = mul i64 %26, 8
  %28 = call ptr @cli_safer_realloc(ptr noundef %24, i64 noundef %27)
  store ptr %28, ptr %8, align 8
  %29 = load ptr, ptr %8, align 8
  %30 = icmp eq ptr %29, null
  br i1 %30, label %31, label %32

31:                                               ; preds = %19
  call void (i32, ptr, ...) @mprintf(i32 noundef 5, ptr noundef @.str.108)
  store i32 15, ptr %7, align 4
  br label %53

32:                                               ; preds = %19
  %33 = load ptr, ptr %8, align 8
  %34 = load ptr, ptr %5, align 8
  store ptr %33, ptr %34, align 8
  %35 = load ptr, ptr %4, align 8
  %36 = call ptr @cli_safer_strdup(ptr noundef %35)
  %37 = load ptr, ptr %8, align 8
  %38 = load i32, ptr %9, align 4
  %39 = sub i32 %38, 1
  %40 = zext i32 %39 to i64
  %41 = getelementptr inbounds ptr, ptr %37, i64 %40
  store ptr %36, ptr %41, align 8
  %42 = load ptr, ptr %8, align 8
  %43 = load i32, ptr %9, align 4
  %44 = sub i32 %43, 1
  %45 = zext i32 %44 to i64
  %46 = getelementptr inbounds ptr, ptr %42, i64 %45
  %47 = load ptr, ptr %46, align 8
  %48 = icmp eq ptr %47, null
  br i1 %48, label %49, label %50

49:                                               ; preds = %32
  call void (i32, ptr, ...) @mprintf(i32 noundef 5, ptr noundef @.str.109)
  store i32 15, ptr %7, align 4
  br label %53

50:                                               ; preds = %32
  %51 = load i32, ptr %9, align 4
  %52 = load ptr, ptr %6, align 8
  store i32 %51, ptr %52, align 4
  store i32 0, ptr %7, align 4
  br label %53

53:                                               ; preds = %50, %49, %31, %18
  %54 = load i32, ptr %7, align 4
  ret i32 %54
}