; Function Attrs: nounwind uwtable
define internal fastcc noundef i32 @string_list_add(ptr noundef %0, ptr noundef %1, ptr noundef %2) unnamed_addr #0 {
  %4 = icmp eq ptr %0, null
  %5 = icmp eq ptr %1, null
  %or.cond = or i1 %4, %5
  %6 = icmp eq ptr %2, null
  %or.cond3 = or i1 %or.cond, %6
  br i1 %or.cond3, label %7, label %8

7:                                                ; preds = %3
  tail call void (i32, ptr, ...) @mprintf(i32 noundef 5, ptr noundef nonnull @.str.107) #17
  br label %24

8:                                                ; preds = %3
  %9 = load i32, ptr %2, align 4
  %10 = add i32 %9, 1
  %11 = load ptr, ptr %1, align 8
  %12 = zext i32 %10 to i64
  %13 = shl nuw nsw i64 %12, 3
  %14 = tail call ptr @cli_safer_realloc(ptr noundef %11, i64 noundef %13) #17
  %15 = icmp eq ptr %14, null
  br i1 %15, label %16, label %17

16:                                               ; preds = %8
  tail call void (i32, ptr, ...) @mprintf(i32 noundef 5, ptr noundef nonnull @.str.108) #17
  br label %24

17:                                               ; preds = %8
  store ptr %14, ptr %1, align 8
  %18 = tail call ptr @cli_safer_strdup(ptr noundef nonnull %0) #17
  %19 = zext i32 %9 to i64
  %20 = getelementptr inbounds ptr, ptr %14, i64 %19
  store ptr %18, ptr %20, align 8
  %21 = icmp eq ptr %18, null
  br i1 %21, label %22, label %23

22:                                               ; preds = %17
  tail call void (i32, ptr, ...) @mprintf(i32 noundef 5, ptr noundef nonnull @.str.109) #17
  br label %24

23:                                               ; preds = %17
  store i32 %10, ptr %2, align 4
  br label %24

24:                                               ; preds = %23, %22, %16, %7
  %.0 = phi i32 [ 16, %7 ], [ 15, %16 ], [ 15, %22 ], [ 0, %23 ]
  ret i32 %.0
}